target datalayout = "e-m:e-p270:32:32-p271:32:32-p272:64:64-i64:64-i128:128-f80:128-n8:16:32:64-S128"
target triple = "x86_64-pc-linux-gnu"

%struct.Node = type { i32 }
%struct.PlanState = type { i32, ptr, ptr, ptr, ptr, ptr, ptr, ptr, ptr, ptr, ptr, ptr, ptr, ptr, ptr, ptr, ptr, ptr, i8, ptr, ptr, ptr, ptr, ptr, i8, i8, i8, i8, i8, i8, i8, i8 }
%struct.SortState = type { %struct.ScanState, i8, i8, i64, i8, i8, i64, ptr, i8, i8, ptr }
%struct.ScanState = type { %struct.PlanState, ptr, ptr, ptr }
%struct.IncrementalSortState = type { %struct.ScanState, i8, i64, i8, i64, i32, i64, ptr, ptr, ptr, %struct.IncrementalSortInfo, ptr, ptr, i8, ptr }
%struct.IncrementalSortInfo = type { %struct.IncrementalSortGroupInfo, %struct.IncrementalSortGroupInfo }
%struct.IncrementalSortGroupInfo = type { i64, i64, i64, i64, i64, i32 }
%struct.AppendState = type { %struct.PlanState, ptr, i32, i32, i8, ptr, i32, ptr, ptr, i32, i8, i32, ptr, ptr, i32, ptr, i64, ptr, i8, ptr, ptr, ptr }
%struct.MergeAppendState = type { %struct.PlanState, ptr, i32, i32, ptr, ptr, ptr, i8, ptr, ptr }
%struct.SubqueryScanState = type { %struct.ScanState, ptr }
%struct.GatherState = type { %struct.PlanState, i8, i8, i64, ptr, ptr, i32, i32, i32, ptr }
%struct.GatherMergeState = type { %struct.PlanState, i8, i8, i8, i64, ptr, i32, ptr, ptr, i32, i32, ptr, ptr, ptr, ptr }

; Function Attrs: nounwind uwtable
define dso_local void @ExecSetTupleBound(i64 noundef %0, ptr noundef %1) #0 {
  %3 = alloca i64, align 8
  %4 = alloca ptr, align 8
  %5 = alloca ptr, align 8
  %6 = alloca ptr, align 8
  %7 = alloca ptr, align 8
  %8 = alloca i32, align 4
  %9 = alloca ptr, align 8
  %10 = alloca i32, align 4
  %11 = alloca ptr, align 8
  %12 = alloca ptr, align 8
  %13 = alloca ptr, align 8
  store i64 %0, ptr %3, align 8
  store ptr %1, ptr %4, align 8
  %14 = load ptr, ptr %4, align 8
  %15 = getelementptr inbounds nuw %struct.Node, ptr %14, i32 0, i32 0
  %16 = load i32, ptr %15, align 4
  %17 = icmp eq i32 %16, 425
  br i1 %17, label %18, label %32

18:                                               ; preds = %2
  call void @llvm.lifetime.start.p0(i64 8, ptr %5) #6
  %19 = load ptr, ptr %4, align 8
  store ptr %19, ptr %5, align 8
  %20 = load i64, ptr %3, align 8
  %21 = icmp slt i64 %20, 0
  br i1 %21, label %22, label %25

22:                                               ; preds = %18
  %23 = load ptr, ptr %5, align 8
  %24 = getelementptr inbounds nuw %struct.SortState, ptr %23, i32 0, i32 2
  store i8 0, ptr %24, align 1
  br label %31

25:                                               ; preds = %18
  %26 = load ptr, ptr %5, align 8
  %27 = getelementptr inbounds nuw %struct.SortState, ptr %26, i32 0, i32 2
  store i8 1, ptr %27, align 1
  %28 = load i64, ptr %3, align 8
  %29 = load ptr, ptr %5, align 8
  %30 = getelementptr inbounds nuw %struct.SortState, ptr %29, i32 0, i32 3
  store i64 %28, ptr %30, align 8
  br label %31

31:                                               ; preds = %25, %22
  call void @llvm.lifetime.end.p0(i64 8, ptr %5) #6
  br label %173

32:                                               ; preds = %2
  %33 = load ptr, ptr %4, align 8
  %34 = getelementptr inbounds nuw %struct.Node, ptr %33, i32 0, i32 0
  %35 = load i32, ptr %34, align 4
  %36 = icmp eq i32 %35, 426
  br i1 %36, label %37, label %51

37:                                               ; preds = %32
  call void @llvm.lifetime.start.p0(i64 8, ptr %6) #6
  %38 = load ptr, ptr %4, align 8
  store ptr %38, ptr %6, align 8
  %39 = load i64, ptr %3, align 8
  %40 = icmp slt i64 %39, 0
  br i1 %40, label %41, label %44

41:                                               ; preds = %37
  %42 = load ptr, ptr %6, align 8
  %43 = getelementptr inbounds nuw %struct.IncrementalSortState, ptr %42, i32 0, i32 1
  store i8 0, ptr %43, align 8
  br label %50

44:                                               ; preds = %37
  %45 = load ptr, ptr %6, align 8
  %46 = getelementptr inbounds nuw %struct.IncrementalSortState, ptr %45, i32 0, i32 1
  store i8 1, ptr %46, align 8
  %47 = load i64, ptr %3, align 8
  %48 = load ptr, ptr %6, align 8
  %49 = getelementptr inbounds nuw %struct.IncrementalSortState, ptr %48, i32 0, i32 2
  store i64 %47, ptr %49, align 8
  br label %50

50:                                               ; preds = %44, %41
  call void @llvm.lifetime.end.p0(i64 8, ptr %6) #6
  br label %172

51:                                               ; preds = %32
  %52 = load ptr, ptr %4, align 8
  %53 = getelementptr inbounds nuw %struct.Node, ptr %52, i32 0, i32 0
  %54 = load i32, ptr %53, align 4
  %55 = icmp eq i32 %54, 396
  br i1 %55, label %56, label %77

56:                                               ; preds = %51
  call void @llvm.lifetime.start.p0(i64 8, ptr %7) #6
  %57 = load ptr, ptr %4, align 8
  store ptr %57, ptr %7, align 8
  call void @llvm.lifetime.start.p0(i64 4, ptr %8) #6
  store i32 0, ptr %8, align 4
  br label %58

58:                                               ; preds = %73, %56
  %59 = load i32, ptr %8, align 4
  %60 = load ptr, ptr %7, align 8
  %61 = getelementptr inbounds nuw %struct.AppendState, ptr %60, i32 0, i32 2
  %62 = load i32, ptr %61, align 8
  %63 = icmp slt i32 %59, %62
  br i1 %63, label %64, label %76

64:                                               ; preds = %58
  %65 = load i64, ptr %3, align 8
  %66 = load ptr, ptr %7, align 8
  %67 = getelementptr inbounds nuw %struct.AppendState, ptr %66, i32 0, i32 1
  %68 = load ptr, ptr %67, align 8
  %69 = load i32, ptr %8, align 4
  %70 = sext i32 %69 to i64
  %71 = getelementptr inbounds ptr, ptr %68, i64 %70
  %72 = load ptr, ptr %71, align 8
  call void @ExecSetTupleBound(i64 noundef %65, ptr noundef %72)
  br label %73

73:                                               ; preds = %64
  %74 = load i32, ptr %8, align 4
  %75 = add i32 %74, 1
  store i32 %75, ptr %8, align 4
  br label %58, !llvm.loop !8

76:                                               ; preds = %58
  call void @llvm.lifetime.end.p0(i64 4, ptr %8) #6
  call void @llvm.lifetime.end.p0(i64 8, ptr %7) #6
  br label %171

77:                                               ; preds = %51
  %78 = load ptr, ptr %4, align 8
  %79 = getelementptr inbounds nuw %struct.Node, ptr %78, i32 0, i32 0
  %80 = load i32, ptr %79, align 4
  %81 = icmp eq i32 %80, 397
  br i1 %81, label %82, label %103

82:                                               ; preds = %77
  call void @llvm.lifetime.start.p0(i64 8, ptr %9) #6
  %83 = load ptr, ptr %4, align 8
  store ptr %83, ptr %9, align 8
  call void @llvm.lifetime.start.p0(i64 4, ptr %10) #6
  store i32 0, ptr %10, align 4
  br label %84

84:                                               ; preds = %99, %82
  %85 = load i32, ptr %10, align 4
  %86 = load ptr, ptr %9, align 8
  %87 = getelementptr inbounds nuw %struct.MergeAppendState, ptr %86, i32 0, i32 2
  %88 = load i32, ptr %87, align 8
  %89 = icmp slt i32 %85, %88
  br i1 %89, label %90, label %102

90:                                               ; preds = %84
  %91 = load i64, ptr %3, align 8
  %92 = load ptr, ptr %9, align 8
  %93 = getelementptr inbounds nuw %struct.MergeAppendState, ptr %92, i32 0, i32 1
  %94 = load ptr, ptr %93, align 8
  %95 = load i32, ptr %10, align 4
  %96 = sext i32 %95 to i64
  %97 = getelementptr inbounds ptr, ptr %94, i64 %96
  %98 = load ptr, ptr %97, align 8
  call void @ExecSetTupleBound(i64 noundef %91, ptr noundef %98)
  br label %99

99:                                               ; preds = %90
  %100 = load i32, ptr %10, align 4
  %101 = add i32 %100, 1
  store i32 %101, ptr %10, align 4
  br label %84, !llvm.loop !9

102:                                              ; preds = %84
  call void @llvm.lifetime.end.p0(i64 4, ptr %10) #6
  call void @llvm.lifetime.end.p0(i64 8, ptr %9) #6
  br label %170

103:                                              ; preds = %77
  %104 = load ptr, ptr %4, align 8
  %105 = getelementptr inbounds nuw %struct.Node, ptr %104, i32 0, i32 0
  %106 = load i32, ptr %105, align 4
  %107 = icmp eq i32 %106, 393
  br i1 %107, label %108, label %119

108:                                              ; preds = %103
  %109 = load ptr, ptr %4, align 8
  %110 = getelementptr inbounds nuw %struct.PlanState, ptr %109, i32 0, i32 9
  %111 = load ptr, ptr %110, align 8
  %112 = icmp ne ptr %111, null
  br i1 %112, label %113, label %118

113:                                              ; preds = %108
  %114 = load i64, ptr %3, align 8
  %115 = load ptr, ptr %4, align 8
  %116 = getelementptr inbounds nuw %struct.PlanState, ptr %115, i32 0, i32 9
  %117 = load ptr, ptr %116, align 8
  call void @ExecSetTupleBound(i64 noundef %114, ptr noundef %117)
  br label %118

118:                                              ; preds = %113, %108
  br label %169

119:                                              ; preds = %103
  %120 = load ptr, ptr %4, align 8
  %121 = getelementptr inbounds nuw %struct.Node, ptr %120, i32 0, i32 0
  %122 = load i32, ptr %121, align 4
  %123 = icmp eq i32 %122, 410
  br i1 %123, label %124, label %138

124:                                              ; preds = %119
  call void @llvm.lifetime.start.p0(i64 8, ptr %11) #6
  %125 = load ptr, ptr %4, align 8
  store ptr %125, ptr %11, align 8
  %126 = load ptr, ptr %11, align 8
  %127 = getelementptr inbounds nuw %struct.SubqueryScanState, ptr %126, i32 0, i32 0
  %128 = getelementptr inbounds nuw %struct.ScanState, ptr %127, i32 0, i32 0
  %129 = getelementptr inbounds nuw %struct.PlanState, ptr %128, i32 0, i32 8
  %130 = load ptr, ptr %129, align 8
  %131 = icmp eq ptr %130, null
  br i1 %131, label %132, label %137

132:                                              ; preds = %124
  %133 = load i64, ptr %3, align 8
  %134 = load ptr, ptr %11, align 8
  %135 = getelementptr inbounds nuw %struct.SubqueryScanState, ptr %134, i32 0, i32 1
  %136 = load ptr, ptr %135, align 8
  call void @ExecSetTupleBound(i64 noundef %133, ptr noundef %136)
  br label %137

137:                                              ; preds = %132, %124
  call void @llvm.lifetime.end.p0(i64 8, ptr %11) #6
  br label %168

138:                                              ; preds = %119
  %139 = load ptr, ptr %4, align 8
  %140 = getelementptr inbounds nuw %struct.Node, ptr %139, i32 0, i32 0
  %141 = load i32, ptr %140, align 4
  %142 = icmp eq i32 %141, 431
  br i1 %142, label %143, label %152

143:                                              ; preds = %138
  call void @llvm.lifetime.start.p0(i64 8, ptr %12) #6
  %144 = load ptr, ptr %4, align 8
  store ptr %144, ptr %12, align 8
  %145 = load i64, ptr %3, align 8
  %146 = load ptr, ptr %12, align 8
  %147 = getelementptr inbounds nuw %struct.GatherState, ptr %146, i32 0, i32 3
  store i64 %145, ptr %147, align 8
  %148 = load i64, ptr %3, align 8
  %149 = load ptr, ptr %4, align 8
  %150 = getelementptr inbounds nuw %struct.PlanState, ptr %149, i32 0, i32 9
  %151 = load ptr, ptr %150, align 8
  call void @ExecSetTupleBound(i64 noundef %148, ptr noundef %151)
  call void @llvm.lifetime.end.p0(i64 8, ptr %12) #6
  br label %167

152:                                              ; preds = %138
  %153 = load ptr, ptr %4, align 8
  %154 = getelementptr inbounds nuw %struct.Node, ptr %153, i32 0, i32 0
  %155 = load i32, ptr %154, align 4
  %156 = icmp eq i32 %155, 432
  br i1 %156, label %157, label %166

157:                                              ; preds = %152
  call void @llvm.lifetime.start.p0(i64 8, ptr %13) #6
  %158 = load ptr, ptr %4, align 8
  store ptr %158, ptr %13, align 8
  %159 = load i64, ptr %3, align 8
  %160 = load ptr, ptr %13, align 8
  %161 = getelementptr inbounds nuw %struct.GatherMergeState, ptr %160, i32 0, i32 4
  store i64 %159, ptr %161, align 8
  %162 = load i64, ptr %3, align 8
  %163 = load ptr, ptr %4, align 8
  %164 = getelementptr inbounds nuw %struct.PlanState, ptr %163, i32 0, i32 9
  %165 = load ptr, ptr %164, align 8
  call void @ExecSetTupleBound(i64 noundef %162, ptr noundef %165)
  call void @llvm.lifetime.end.p0(i64 8, ptr %13) #6
  br label %166

166:                                              ; preds = %157, %152
  br label %167

167:                                              ; preds = %166, %143
  br label %168

168:                                              ; preds = %167, %137
  br label %169

169:                                              ; preds = %168, %118
  br label %170

170:                                              ; preds = %169, %102
  br label %171

171:                                              ; preds = %170, %76
  br label %172

172:                                              ; preds = %171, %50
  br label %173

173:                                              ; preds = %172, %31
  ret void
}