; Function Attrs: nofree nosync nounwind memory(readwrite, inaccessiblemem: none) uwtable
define dso_local void @ExecSetTupleBound(i64 noundef %0, ptr noundef captures(none) %1) local_unnamed_addr #4 {
  br label %tailrecurse

tailrecurse:                                      ; preds = %tailrecurse.backedge, %2
  %.tr54 = phi ptr [ %1, %2 ], [ %.tr54.be, %tailrecurse.backedge ]
  %3 = load i32, ptr %.tr54, align 4
  switch i32 %3, label %.loopexit [
    i32 425, label %12
    i32 426, label %18
    i32 396, label %.preheader
    i32 397, label %.preheader55
    i32 393, label %38
    i32 410, label %41
    i32 431, label %tailrecurse.backedge.sink.split.sink.split
    i32 432, label %tailrecurse.backedge.sink.split.sink.split
  ]

.preheader55:                                     ; preds = %tailrecurse
  %4 = getelementptr inbounds nuw i8, ptr %.tr54, i64 208
  %5 = load i32, ptr %4, align 8
  %6 = icmp sgt i32 %5, 0
  br i1 %6, label %.lr.ph, label %.loopexit

.lr.ph:                                           ; preds = %.preheader55
  %7 = getelementptr inbounds nuw i8, ptr %.tr54, i64 200
  br label %31

.preheader:                                       ; preds = %tailrecurse
  %8 = getelementptr inbounds nuw i8, ptr %.tr54, i64 208
  %9 = load i32, ptr %8, align 8
  %10 = icmp sgt i32 %9, 0
  br i1 %10, label %.lr.ph64, label %.loopexit

.lr.ph64:                                         ; preds = %.preheader
  %11 = getelementptr inbounds nuw i8, ptr %.tr54, i64 200
  br label %24

12:                                               ; preds = %tailrecurse
  %13 = icmp slt i64 %0, 0
  %14 = getelementptr inbounds nuw i8, ptr %.tr54, i64 225
  br i1 %13, label %15, label %16

15:                                               ; preds = %12
  store i8 0, ptr %14, align 1
  br label %.loopexit

16:                                               ; preds = %12
  store i8 1, ptr %14, align 1
  %17 = getelementptr inbounds nuw i8, ptr %.tr54, i64 232
  store i64 %0, ptr %17, align 8
  br label %.loopexit

18:                                               ; preds = %tailrecurse
  %19 = icmp slt i64 %0, 0
  %20 = getelementptr inbounds nuw i8, ptr %.tr54, i64 224
  br i1 %19, label %21, label %22

21:                                               ; preds = %18
  store i8 0, ptr %20, align 8
  br label %.loopexit

22:                                               ; preds = %18
  store i8 1, ptr %20, align 8
  %23 = getelementptr inbounds nuw i8, ptr %.tr54, i64 232
  store i64 %0, ptr %23, align 8
  br label %.loopexit

24:                                               ; preds = %.lr.ph64, %24
  %indvars.iv72 = phi i64 [ 0, %.lr.ph64 ], [ %indvars.iv.next73, %24 ]
  %25 = load ptr, ptr %11, align 8
  %26 = getelementptr inbounds nuw ptr, ptr %25, i64 %indvars.iv72
  %27 = load ptr, ptr %26, align 8
  tail call void @ExecSetTupleBound(i64 noundef %0, ptr noundef %27)
  %indvars.iv.next73 = add nuw nsw i64 %indvars.iv72, 1
  %28 = load i32, ptr %8, align 8
  %29 = sext i32 %28 to i64
  %30 = icmp slt i64 %indvars.iv.next73, %29
  br i1 %30, label %24, label %.loopexit, !llvm.loop !7

31:                                               ; preds = %.lr.ph, %31
  %indvars.iv = phi i64 [ 0, %.lr.ph ], [ %indvars.iv.next, %31 ]
  %32 = load ptr, ptr %7, align 8
  %33 = getelementptr inbounds nuw ptr, ptr %32, i64 %indvars.iv
  %34 = load ptr, ptr %33, align 8
  tail call void @ExecSetTupleBound(i64 noundef %0, ptr noundef %34)
  %indvars.iv.next = add nuw nsw i64 %indvars.iv, 1
  %35 = load i32, ptr %4, align 8
  %36 = sext i32 %35 to i64
  %37 = icmp slt i64 %indvars.iv.next, %36
  br i1 %37, label %31, label %.loopexit, !llvm.loop !9

38:                                               ; preds = %tailrecurse
  %39 = getelementptr inbounds nuw i8, ptr %.tr54, i64 72
  %40 = load ptr, ptr %39, align 8
  %.not = icmp eq ptr %40, null
  br i1 %.not, label %.loopexit, label %tailrecurse.backedge

41:                                               ; preds = %tailrecurse
  %42 = getelementptr inbounds nuw i8, ptr %.tr54, i64 64
  %43 = load ptr, ptr %42, align 8
  %44 = icmp eq ptr %43, null
  br i1 %44, label %tailrecurse.backedge.sink.split, label %.loopexit

tailrecurse.backedge.sink.split.sink.split:       ; preds = %tailrecurse, %tailrecurse
  %45 = getelementptr inbounds nuw i8, ptr %.tr54, i64 208
  store i64 %0, ptr %45, align 8
  br label %tailrecurse.backedge.sink.split

tailrecurse.backedge.sink.split:                  ; preds = %tailrecurse.backedge.sink.split.sink.split, %41
  %.sink81 = phi i64 [ 224, %41 ], [ 72, %tailrecurse.backedge.sink.split.sink.split ]
  %46 = getelementptr inbounds nuw i8, ptr %.tr54, i64 %.sink81
  %47 = load ptr, ptr %46, align 8
  br label %tailrecurse.backedge

tailrecurse.backedge:                             ; preds = %tailrecurse.backedge.sink.split, %38
  %.tr54.be = phi ptr [ %40, %38 ], [ %47, %tailrecurse.backedge.sink.split ]
  br label %tailrecurse

.loopexit:                                        ; preds = %tailrecurse, %41, %38, %31, %24, %.preheader55, %.preheader, %21, %22, %15, %16
  ret void
}